; Function Attrs: mustprogress uwtable
define hidden noundef zeroext i1 @_ZN6google8protobuf11MessageLite16ParseFromIstreamEPSi(ptr noundef nonnull align 8 dereferenceable(16) %0, ptr noundef %1) local_unnamed_addr #3 align 2 personality ptr @__gxx_personality_v0 {
  %3 = alloca %"class.google::protobuf::internal::ParseContext", align 8
  %4 = alloca %"class.google::protobuf::io::IstreamInputStream", align 8
  call void @llvm.lifetime.start.p0(i64 80, ptr nonnull %4) #20
  call void @_ZN6google8protobuf2io18IstreamInputStreamC1EPSii(ptr noundef nonnull align 8 dereferenceable(80) %4, ptr noundef %1, i32 noundef -1)
  %5 = load ptr, ptr %0, align 8, !tbaa !25
  %6 = getelementptr inbounds nuw i8, ptr %5, i64 32
  %7 = load ptr, ptr %6, align 8
  invoke void %7(ptr noundef nonnull align 8 dereferenceable(16) %0)
          to label %.noexc unwind label %41

.noexc:                                           ; preds = %2
  call void @llvm.lifetime.start.p0(i64 120, ptr nonnull %3) #20
  %8 = load i32, ptr @_ZN6google8protobuf2io16CodedInputStream24default_recursion_limit_E, align 4, !tbaa !3
  %9 = getelementptr inbounds nuw i8, ptr %3, i64 32
  %10 = getelementptr inbounds nuw i8, ptr %3, i64 80
  %11 = getelementptr inbounds nuw i8, ptr %3, i64 84
  call void @llvm.memset.p0.i64(ptr noundef nonnull align 8 dereferenceable(52) %9, i8 0, i64 52, i1 false)
  store i32 2147483647, ptr %11, align 4, !tbaa !19
  %12 = getelementptr inbounds nuw i8, ptr %3, i64 88
  store i32 %8, ptr %12, align 8, !tbaa !7
  %13 = getelementptr inbounds nuw i8, ptr %3, i64 92
  store i32 -2147483648, ptr %13, align 4, !tbaa !18
  %14 = getelementptr inbounds nuw i8, ptr %3, i64 96
  call void @llvm.memset.p0.i64(ptr noundef nonnull align 8 dereferenceable(24) %14, i8 0, i64 24, i1 false)
  %15 = invoke noundef ptr @_ZN6google8protobuf8internal18EpsCopyInputStream8InitFromEPNS0_2io19ZeroCopyInputStreamE(ptr noundef nonnull align 8 dereferenceable(120) %3, ptr noundef nonnull %4)
          to label %.noexc4 unwind label %41

.noexc4:                                          ; preds = %.noexc
  %16 = load ptr, ptr %0, align 8, !tbaa !25
  %17 = getelementptr inbounds nuw i8, ptr %16, i64 80
  %18 = load ptr, ptr %17, align 8
  %19 = invoke noundef ptr %18(ptr noundef nonnull align 8 dereferenceable(16) %0, ptr noundef %15, ptr noundef nonnull %3)
          to label %.noexc5 unwind label %41

.noexc5:                                          ; preds = %.noexc4
  %.not.i.i.i = icmp ne ptr %19, null
  %20 = load i32, ptr %10, align 8
  %21 = icmp eq i32 %20, 1
  %or.cond.i.i.i = select i1 %.not.i.i.i, i1 %21, i1 false
  br i1 %or.cond.i.i.i, label %22, label %.thread, !prof !27

22:                                               ; preds = %.noexc5
  %23 = load ptr, ptr %0, align 8, !tbaa !25
  %24 = getelementptr inbounds nuw i8, ptr %23, i64 40
  %25 = load ptr, ptr %24, align 8
  %26 = invoke noundef zeroext i1 %25(ptr noundef nonnull align 8 dereferenceable(16) %0)
          to label %.noexc6 unwind label %41

.noexc6:                                          ; preds = %22
  br i1 %26, label %28, label %27

27:                                               ; preds = %.noexc6
  invoke void @_ZNK6google8protobuf11MessageLite29LogInitializationErrorMessageEv(ptr noundef nonnull align 8 dereferenceable(16) %0)
          to label %.thread unwind label %41

.thread:                                          ; preds = %.noexc5, %27
  call void @llvm.lifetime.end.p0(i64 120, ptr nonnull %3) #20
  br label %37

28:                                               ; preds = %.noexc6
  call void @llvm.lifetime.end.p0(i64 120, ptr nonnull %3) #20
  %29 = load ptr, ptr %1, align 8, !tbaa !25
  %30 = getelementptr i8, ptr %29, i64 -24
  %31 = load i64, ptr %30, align 8
  %32 = getelementptr inbounds i8, ptr %1, i64 %31
  %33 = getelementptr inbounds nuw i8, ptr %32, i64 32
  %34 = load i32, ptr %33, align 8, !tbaa !65
  %35 = and i32 %34, 2
  %36 = icmp ne i32 %35, 0
  br label %37

37:                                               ; preds = %.thread, %28
  %38 = phi i1 [ %36, %28 ], [ false, %.thread ]
  store ptr getelementptr inbounds nuw inrange(-16, 48) (i8, ptr @_ZTVN6google8protobuf2io18IstreamInputStreamE, i64 16), ptr %4, align 8, !tbaa !25
  %39 = getelementptr inbounds nuw i8, ptr %4, i64 24
  call void @_ZN6google8protobuf2io25CopyingInputStreamAdaptorD1Ev(ptr noundef nonnull align 8 dereferenceable(52) %39) #20
  %40 = getelementptr inbounds nuw i8, ptr %4, i64 8
  call void @_ZN6google8protobuf2io18IstreamInputStream25CopyingIstreamInputStreamD1Ev(ptr noundef nonnull align 8 dereferenceable(16) %40) #20
  call void @llvm.lifetime.end.p0(i64 80, ptr nonnull %4) #20
  ret i1 %38

41:                                               ; preds = %27, %22, %.noexc4, %.noexc, %2
  %42 = landingpad { ptr, i32 }
          cleanup
  store ptr getelementptr inbounds nuw inrange(-16, 48) (i8, ptr @_ZTVN6google8protobuf2io18IstreamInputStreamE, i64 16), ptr %4, align 8, !tbaa !25
  %43 = getelementptr inbounds nuw i8, ptr %4, i64 24
  call void @_ZN6google8protobuf2io25CopyingInputStreamAdaptorD1Ev(ptr noundef nonnull align 8 dereferenceable(52) %43) #20
  %44 = getelementptr inbounds nuw i8, ptr %4, i64 8
  call void @_ZN6google8protobuf2io18IstreamInputStream25CopyingIstreamInputStreamD1Ev(ptr noundef nonnull align 8 dereferenceable(16) %44) #20
  call void @llvm.lifetime.end.p0(i64 80, ptr nonnull %4) #20
  resume { ptr, i32 } %42
}